(lp0
V3i
p1
aVAdmiral Group
p2
aVAnglo American plc
p3
aVAntofagasta
p4
aVAshtead Group
p5
aVAssociated British Foods
p6
aVAstraZeneca
p7
aVAuto Trader Group
p8
aVAviva
p9
aVBAE Systems
p10
aVBarclays
p11
aVBarratt Developments
p12
aVBerkeley Group Holdings
p13
aVBHP
p14
aVBP
p15
aVBritish American Tobacco
p16
aVBritish Land
p17
aVBT Group
p18
aVBunzl
p19
aVBurberry
p20
aVCarnival Corporation & plc
p21
aVCentrica
p22
aVCoca-Cola HBC
p23
aVCompass Group
p24
aVCRH plc
p25
aVCroda International
p26
aVDCC plc
p27
aVDiageo
p28
aVDirect Line Group
p29
aVeasyJet
p30
aVEvraz
p31
aVExperian
p32
aVFerguson plc
p33
aVFresnillo plc
p34
aVGlaxoSmithKline
p35
aVGlencore
p36
aVHalma
p37
aVHargreaves Lansdown
p38
aVHikma Pharmaceuticals
p39
aVHiscox
p40
aVHSBC
p41
aVImperial Brands
p42
aVInforma
p43
aVInterContinental Hotels Group
p44
aVInternational Airlines Group
p45
aVIntertek
p46
aVITV plc
p47
aVJohnson Matthey
p48
aVJust Eat
p49
aVKingfisher plc
p50
aVLand Securities
p51
aVLegal & General
p52
aVLloyds Banking Group
p53
aVLondon Stock Exchange Group
p54
aVMarks & Spencer
p55
aVMelrose Industries
p56
aVMicro Focus
p57
aVMondi
p58
aVMorrisons
p59
aVNational Grid plc
p60
aVNext plc
p61
aVNMC Health
p62
aVOcado
p63
aVPaddy Power Betfair
p64
aVPearson plc
p65
aVPersimmon plc
p66
aVPhoenix Group
p67
aVPrudential plc
p68
aVReckitt Benckiser
p69
aVRELX
p70
aVRentokil Initial
p71
aVRio Tinto Group
p72
aVRightmove
p73
aVRolls-Royce Holdings
p74
aVRoyal Bank of Scotland Group
p75
aVRoyal Dutch Shell
p76
aVRSA Insurance Group
p77
aVSage Group
p78
aVSainsbury's
p79
aVSchroders
p80
aVScottish Mortgage Investment Trust
p81
aVSegro
p82
aVSevern Trent
p83
aVSmith & Nephew
p84
aVSmith, D.S.
p85
aVSmiths Group
p86
aVSmurfit Kappa
p87
aVSpirax-Sarco Engineering
p88
aVSSE plc
p89
aVStandard Chartered
p90
aVStandard Life Aberdeen
p91
aVSt. James's Place plc
p92
aVTaylor Wimpey
p93
aVTesco
p94
aVTUI Group
p95
aVUnilever
p96
aVUnited Utilities
p97
aVVodafone Group
p98
aVWhitbread
p99
aVWPP plc
p100
a.